target datalayout = "e-m:e-p270:32:32-p271:32:32-p272:64:64-i64:64-i128:128-f80:128-n8:16:32:64-S128"
target triple = "x86_64-pc-linux-gnu"

%class.b3QuantizedBvh = type <{ ptr, [8 x i8], %class.b3Vector3, %class.b3Vector3, %class.b3Vector3, i32, i32, i8, [7 x i8], %class.b3AlignedObjectArray, %class.b3AlignedObjectArray, %class.b3AlignedObjectArray.0, %class.b3AlignedObjectArray.0, i32, [4 x i8], %class.b3AlignedObjectArray.2, i32, [4 x i8] }>
%class.b3Vector3 = type { %union.anon }
%union.anon = type { [4 x float] }
%class.b3AlignedObjectArray = type <{ [4 x i8], i32, i32, [4 x i8], ptr, i8, [7 x i8] }>
%class.b3AlignedObjectArray.0 = type <{ [4 x i8], i32, i32, [4 x i8], ptr, i8, [7 x i8] }>
%class.b3AlignedObjectArray.2 = type <{ [4 x i8], i32, i32, [4 x i8], ptr, i8, [7 x i8] }>
%struct.b3QuantizedBvhNode = type { %struct.b3QuantizedBvhNodeData }
%struct.b3QuantizedBvhNodeData = type { [3 x i16], [3 x i16], i32 }
%struct.b3OptimizedBvhNode = type { %class.b3Vector3, %class.b3Vector3, i32, i32, i32, [20 x i8] }

; Function Attrs: inlinehint mustprogress nounwind uwtable
define linkonce_odr dso_local noundef nonnull align 16 dereferenceable(64) ptr @_ZN20b3AlignedObjectArrayI18b3OptimizedBvhNodeEixEi(ptr noundef nonnull align 8 dereferenceable(25) %0, i32 noundef %1) #1 comdat align 2 {
  %3 = alloca ptr, align 8
  %4 = alloca i32, align 4
  store ptr %0, ptr %3, align 8, !tbaa !31
  store i32 %1, ptr %4, align 4, !tbaa !42
  %5 = load ptr, ptr %3, align 8
  %6 = getelementptr inbounds nuw %class.b3AlignedObjectArray, ptr %5, i32 0, i32 4
  %7 = load ptr, ptr %6, align 8, !tbaa !84
  %8 = load i32, ptr %4, align 4, !tbaa !42
  %9 = sext i32 %8 to i64
  %10 = getelementptr inbounds %struct.b3OptimizedBvhNode, ptr %7, i64 %9
  ret ptr %10
}

; Function Attrs: inlinehint mustprogress nounwind uwtable
define linkonce_odr dso_local noundef nonnull align 16 dereferenceable(16) ptr @_ZN20b3AlignedObjectArrayI18b3QuantizedBvhNodeEixEi(ptr noundef nonnull align 8 dereferenceable(25) %0, i32 noundef %1) #1 comdat align 2 {
  %3 = alloca ptr, align 8
  %4 = alloca i32, align 4
  store ptr %0, ptr %3, align 8, !tbaa !33
  store i32 %1, ptr %4, align 4, !tbaa !42
  %5 = load ptr, ptr %3, align 8
  %6 = getelementptr inbounds nuw %class.b3AlignedObjectArray.0, ptr %5, i32 0, i32 4
  %7 = load ptr, ptr %6, align 8, !tbaa !54
  %8 = load i32, ptr %4, align 4, !tbaa !42
  %9 = sext i32 %8 to i64
  %10 = getelementptr inbounds %struct.b3QuantizedBvhNode, ptr %7, i64 %9
  ret ptr %10
}

; Function Attrs: mustprogress uwtable
define dso_local void @_ZN14b3QuantizedBvh30assignInternalNodeFromLeafNodeEii(ptr noundef nonnull align 16 dereferenceable(252) %0, i32 noundef %1, i32 noundef %2) #0 align 2 {
  %4 = alloca ptr, align 8
  %5 = alloca i32, align 4
  %6 = alloca i32, align 4
  store ptr %0, ptr %4, align 8, !tbaa !4
  store i32 %1, ptr %5, align 4, !tbaa !42
  store i32 %2, ptr %6, align 4, !tbaa !42
  %7 = load ptr, ptr %4, align 8
  %8 = getelementptr inbounds nuw %class.b3QuantizedBvh, ptr %7, i32 0, i32 7
  %9 = load i8, ptr %8, align 8, !tbaa !26, !range !43, !noundef !44
  %10 = trunc i8 %9 to i1
  br i1 %10, label %11, label %18

11:                                               ; preds = %3
  %12 = getelementptr inbounds nuw %class.b3QuantizedBvh, ptr %7, i32 0, i32 11
  %13 = load i32, ptr %6, align 4, !tbaa !42
  %14 = call noundef nonnull align 16 dereferenceable(16) ptr @_ZN20b3AlignedObjectArrayI18b3QuantizedBvhNodeEixEi(ptr noundef nonnull align 8 dereferenceable(25) %12, i32 noundef %13)
  %15 = getelementptr inbounds nuw %class.b3QuantizedBvh, ptr %7, i32 0, i32 12
  %16 = load i32, ptr %5, align 4, !tbaa !42
  %17 = call noundef nonnull align 16 dereferenceable(16) ptr @_ZN20b3AlignedObjectArrayI18b3QuantizedBvhNodeEixEi(ptr noundef nonnull align 8 dereferenceable(25) %15, i32 noundef %16)
  call void @llvm.memcpy.p0.p0.i64(ptr align 16 %17, ptr align 16 %14, i64 16, i1 false)
  br label %25

18:                                               ; preds = %3
  %19 = getelementptr inbounds nuw %class.b3QuantizedBvh, ptr %7, i32 0, i32 9
  %20 = load i32, ptr %6, align 4, !tbaa !42
  %21 = call noundef nonnull align 16 dereferenceable(64) ptr @_ZN20b3AlignedObjectArrayI18b3OptimizedBvhNodeEixEi(ptr noundef nonnull align 8 dereferenceable(25) %19, i32 noundef %20)
  %22 = getelementptr inbounds nuw %class.b3QuantizedBvh, ptr %7, i32 0, i32 10
  %23 = load i32, ptr %5, align 4, !tbaa !42
  %24 = call noundef nonnull align 16 dereferenceable(64) ptr @_ZN20b3AlignedObjectArrayI18b3OptimizedBvhNodeEixEi(ptr noundef nonnull align 8 dereferenceable(25) %22, i32 noundef %23)
  call void @llvm.memcpy.p0.p0.i64(ptr align 16 %24, ptr align 16 %21, i64 64, i1 false), !tbaa.struct !65
  br label %25

25:                                               ; preds = %18, %11
  ret void
}