; Function Attrs: mustprogress nofree norecurse nosync nounwind willreturn memory(readwrite, inaccessiblemem: none) uwtable
define dso_local void @_ZN14b3QuantizedBvh30assignInternalNodeFromLeafNodeEii(ptr noundef nonnull readonly align 16 captures(none) dereferenceable(252) %0, i32 noundef %1, i32 noundef %2) local_unnamed_addr #9 align 2 {
  %4 = getelementptr inbounds nuw i8, ptr %0, i64 72
  %5 = load i8, ptr %4, align 8, !tbaa !24, !range !42, !noundef !43
  %6 = trunc nuw i8 %5 to i1
  %7 = sext i32 %2 to i64
  %8 = sext i32 %1 to i64
  br i1 %6, label %9, label %16

9:                                                ; preds = %3
  %10 = getelementptr inbounds nuw i8, ptr %0, i64 160
  %11 = load ptr, ptr %10, align 16, !tbaa !30
  %12 = getelementptr inbounds %struct.b3QuantizedBvhNode, ptr %11, i64 %7
  %13 = getelementptr inbounds nuw i8, ptr %0, i64 192
  %14 = load ptr, ptr %13, align 16, !tbaa !30
  %15 = getelementptr inbounds %struct.b3QuantizedBvhNode, ptr %14, i64 %8
  tail call void @llvm.memcpy.p0.p0.i64(ptr noundef nonnull align 16 dereferenceable(16) %15, ptr noundef nonnull align 16 dereferenceable(16) %12, i64 16, i1 false)
  br label %23

16:                                               ; preds = %3
  %17 = getelementptr inbounds nuw i8, ptr %0, i64 96
  %18 = load ptr, ptr %17, align 16, !tbaa !26
  %19 = getelementptr inbounds %struct.b3OptimizedBvhNode, ptr %18, i64 %7
  %20 = getelementptr inbounds nuw i8, ptr %0, i64 128
  %21 = load ptr, ptr %20, align 16, !tbaa !26
  %22 = getelementptr inbounds %struct.b3OptimizedBvhNode, ptr %21, i64 %8
  tail call void @llvm.memcpy.p0.p0.i64(ptr noundef nonnull align 16 dereferenceable(64) %22, ptr noundef nonnull align 16 dereferenceable(64) %19, i64 64, i1 false), !tbaa.struct !53
  br label %23

23:                                               ; preds = %16, %9
  ret void
}